; Function Attrs: mustprogress nofree nosync nounwind willreturn memory(read, inaccessiblemem: none) uwtable
define range(i32 0, 2) i32 @BIO_fd_should_retry(i32 noundef %0) local_unnamed_addr #3 {
  %2 = add i32 %0, 1
  %or.cond = icmp ult i32 %2, 2
  br i1 %or.cond, label %3, label %BIO_fd_non_fatal_error.exit

3:                                                ; preds = %1
  %4 = tail call ptr @__errno_location() #10
  %5 = load i32, ptr %4, align 4, !tbaa !3
  switch i32 %5, label %6 [
    i32 11, label %BIO_fd_non_fatal_error.exit
    i32 107, label %BIO_fd_non_fatal_error.exit
    i32 4, label %BIO_fd_non_fatal_error.exit
    i32 71, label %BIO_fd_non_fatal_error.exit
    i32 115, label %BIO_fd_non_fatal_error.exit
    i32 114, label %BIO_fd_non_fatal_error.exit
  ]

6:                                                ; preds = %3
  br label %BIO_fd_non_fatal_error.exit

BIO_fd_non_fatal_error.exit:                      ; preds = %6, %3, %3, %3, %3, %3, %3, %1
  %.0 = phi i32 [ 0, %1 ], [ 0, %6 ], [ 1, %3 ], [ 1, %3 ], [ 1, %3 ], [ 1, %3 ], [ 1, %3 ], [ 1, %3 ]
  ret i32 %.0
}